target datalayout = "e-m:e-p270:32:32-p271:32:32-p272:64:64-i64:64-i128:128-f80:128-n8:16:32:64-S128"
target triple = "x86_64-pc-linux-gnu"

%struct.pmix_list_t = type { %struct.pmix_object_t, %struct.pmix_list_item_t, i64 }
%struct.pmix_object_t = type { %union.pthread_mutex_t, ptr, i32, %struct.pmix_tma }
%union.pthread_mutex_t = type { %struct.__pthread_mutex_s }
%struct.__pthread_mutex_s = type { i32, i32, i32, i32, i32, i16, i16, %struct.__pthread_internal_list }
%struct.__pthread_internal_list = type { ptr, ptr }
%struct.pmix_tma = type { ptr, ptr, ptr, ptr, ptr, ptr, ptr, ptr }
%struct.pmix_list_item_t = type { %struct.pmix_object_t, ptr, ptr, i32 }
%struct.prte_process_info_t = type { %struct.pmix_proc, %struct.pmix_proc, ptr, %struct.pmix_proc, i32, i32, i32, ptr, ptr, i32, i8, ptr, i16, ptr, ptr, i8, ptr, i8 }
%struct.pmix_proc = type { [256 x i8], i32 }
%struct.prte_node_t = type { %struct.pmix_list_item_t, i32, ptr, ptr, ptr, ptr, ptr, ptr, i16, ptr, i16, i8, i32, i32, i32, i32, ptr, i8, %struct.pmix_list_t }
%struct.pmix_pointer_array_t = type { %struct.pmix_object_t, i32, i32, i32, i32, i32, ptr, ptr }

@prte_process_info = external global %struct.prte_process_info_t, align 8
@prte_node_pool = external global ptr, align 8
@.str.2 = private unnamed_addr constant [19 x i8] c"help-dash-host.txt\00", align 1
@.str.3 = private unnamed_addr constant [39 x i8] c"dash-host:invalid-relative-node-syntax\00", align 1
@.str.4 = private unnamed_addr constant [38 x i8] c"dash-host:relative-node-out-of-bounds\00", align 1
@prte_hnp_is_allocated = external global i8, align 1
@.str.5 = private unnamed_addr constant [34 x i8] c"dash-host:relative-node-not-found\00", align 1
@.str.18 = private unnamed_addr constant [2 x i8] c"*\00", align 1

; Function Attrs: inlinehint nounwind uwtable
define internal ptr @pmix_pointer_array_get_item(ptr noundef %0, i32 noundef %1) #5 {
  %3 = alloca ptr, align 8
  %4 = alloca ptr, align 8
  %5 = alloca i32, align 4
  %6 = alloca ptr, align 8
  %7 = alloca i32, align 4
  store ptr %0, ptr %4, align 8, !tbaa !53
  store i32 %1, ptr %5, align 4, !tbaa !9
  call void @llvm.lifetime.start.p0(i64 8, ptr %6) #12
  %8 = load i32, ptr %5, align 4, !tbaa !9
  %9 = icmp sgt i32 0, %8
  br i1 %9, label %16, label %10

10:                                               ; preds = %2
  %11 = load ptr, ptr %4, align 8, !tbaa !53
  %12 = getelementptr inbounds nuw %struct.pmix_pointer_array_t, ptr %11, i32 0, i32 3
  %13 = load i32, ptr %12, align 8, !tbaa !54
  %14 = load i32, ptr %5, align 4, !tbaa !9
  %15 = icmp sle i32 %13, %14
  br label %16

16:                                               ; preds = %10, %2
  %17 = phi i1 [ true, %2 ], [ %15, %10 ]
  %18 = xor i1 %17, true
  %19 = xor i1 %18, true
  %20 = zext i1 %19 to i32
  %21 = sext i32 %20 to i64
  %22 = call i64 @llvm.expect.i64(i64 %21, i64 0)
  %23 = icmp ne i64 %22, 0
  br i1 %23, label %24, label %25

24:                                               ; preds = %16
  store ptr null, ptr %3, align 8
  store i32 1, ptr %7, align 4
  br label %34

25:                                               ; preds = %16
  %26 = load ptr, ptr %4, align 8, !tbaa !53
  %27 = getelementptr inbounds nuw %struct.pmix_pointer_array_t, ptr %26, i32 0, i32 7
  %28 = load ptr, ptr %27, align 8, !tbaa !88
  %29 = load i32, ptr %5, align 4, !tbaa !9
  %30 = sext i32 %29 to i64
  %31 = getelementptr inbounds ptr, ptr %28, i64 %30
  %32 = load ptr, ptr %31, align 8, !tbaa !3
  store ptr %32, ptr %6, align 8, !tbaa !3
  %33 = load ptr, ptr %6, align 8, !tbaa !3
  store ptr %33, ptr %3, align 8
  store i32 1, ptr %7, align 4
  br label %34

34:                                               ; preds = %25, %24
  call void @llvm.lifetime.end.p0(i64 8, ptr %6) #12
  %35 = load ptr, ptr %3, align 8
  ret ptr %35
}

; Function Attrs: nounwind uwtable
define internal i32 @parse_dash_host(ptr noundef %0, ptr noundef %1) #0 {
  %3 = alloca ptr, align 8
  %4 = alloca ptr, align 8
  %5 = alloca i32, align 4
  %6 = alloca i32, align 4
  %7 = alloca i32, align 4
  %8 = alloca ptr, align 8
  %9 = alloca ptr, align 8
  %10 = alloca i32, align 4
  %11 = alloca ptr, align 8
  %12 = alloca ptr, align 8
  store ptr %0, ptr %3, align 8, !tbaa !108
  store ptr %1, ptr %4, align 8, !tbaa !7
  call void @llvm.lifetime.start.p0(i64 4, ptr %5) #12
  call void @llvm.lifetime.start.p0(i64 4, ptr %6) #12
  call void @llvm.lifetime.start.p0(i64 4, ptr %7) #12
  store i32 0, ptr %7, align 4, !tbaa !9
  call void @llvm.lifetime.start.p0(i64 8, ptr %8) #12
  store ptr null, ptr %8, align 8, !tbaa !11
  call void @llvm.lifetime.start.p0(i64 8, ptr %9) #12
  call void @llvm.lifetime.start.p0(i64 4, ptr %10) #12
  call void @llvm.lifetime.start.p0(i64 8, ptr %11) #12
  call void @llvm.lifetime.start.p0(i64 8, ptr %12) #12
  store ptr null, ptr %12, align 8, !tbaa !11
  %13 = load ptr, ptr %4, align 8, !tbaa !7
  %14 = call ptr @PMIx_Argv_split(ptr noundef %13, i32 noundef 44)
  store ptr %14, ptr %12, align 8, !tbaa !11
  store i32 0, ptr %5, align 4, !tbaa !9
  br label %15

15:                                               ; preds = %197, %2
  %16 = load i32, ptr %5, align 4, !tbaa !9
  %17 = load ptr, ptr %12, align 8, !tbaa !11
  %18 = call i32 @PMIx_Argv_count(ptr noundef %17)
  %19 = icmp slt i32 %16, %18
  br i1 %19, label %20, label %200

20:                                               ; preds = %15
  %21 = load ptr, ptr %12, align 8, !tbaa !11
  %22 = load i32, ptr %5, align 4, !tbaa !9
  %23 = sext i32 %22 to i64
  %24 = getelementptr inbounds ptr, ptr %21, i64 %23
  %25 = load ptr, ptr %24, align 8, !tbaa !7
  %26 = call ptr @PMIx_Argv_split(ptr noundef %25, i32 noundef 44)
  store ptr %26, ptr %8, align 8, !tbaa !11
  store i32 0, ptr %6, align 4, !tbaa !9
  br label %27

27:                                               ; preds = %192, %20
  %28 = load ptr, ptr %8, align 8, !tbaa !11
  %29 = load i32, ptr %6, align 4, !tbaa !9
  %30 = sext i32 %29 to i64
  %31 = getelementptr inbounds ptr, ptr %28, i64 %30
  %32 = load ptr, ptr %31, align 8, !tbaa !7
  %33 = icmp ne ptr null, %32
  br i1 %33, label %34, label %195

34:                                               ; preds = %27
  %35 = load ptr, ptr %8, align 8, !tbaa !11
  %36 = load i32, ptr %6, align 4, !tbaa !9
  %37 = sext i32 %36 to i64
  %38 = getelementptr inbounds ptr, ptr %35, i64 %37
  %39 = load ptr, ptr %38, align 8, !tbaa !7
  %40 = getelementptr inbounds i8, ptr %39, i64 0
  %41 = load i8, ptr %40, align 1, !tbaa !13
  %42 = sext i8 %41 to i32
  %43 = icmp eq i32 43, %42
  br i1 %43, label %44, label %161

44:                                               ; preds = %34
  %45 = load ptr, ptr %8, align 8, !tbaa !11
  %46 = load i32, ptr %6, align 4, !tbaa !9
  %47 = sext i32 %46 to i64
  %48 = getelementptr inbounds ptr, ptr %45, i64 %47
  %49 = load ptr, ptr %48, align 8, !tbaa !7
  %50 = getelementptr inbounds i8, ptr %49, i64 1
  %51 = load i8, ptr %50, align 1, !tbaa !13
  %52 = sext i8 %51 to i32
  %53 = icmp eq i32 101, %52
  br i1 %53, label %64, label %54

54:                                               ; preds = %44
  %55 = load ptr, ptr %8, align 8, !tbaa !11
  %56 = load i32, ptr %6, align 4, !tbaa !9
  %57 = sext i32 %56 to i64
  %58 = getelementptr inbounds ptr, ptr %55, i64 %57
  %59 = load ptr, ptr %58, align 8, !tbaa !7
  %60 = getelementptr inbounds i8, ptr %59, i64 1
  %61 = load i8, ptr %60, align 1, !tbaa !13
  %62 = sext i8 %61 to i32
  %63 = icmp eq i32 69, %62
  br i1 %63, label %64, label %81

64:                                               ; preds = %54, %44
  %65 = load ptr, ptr %8, align 8, !tbaa !11
  %66 = load i32, ptr %6, align 4, !tbaa !9
  %67 = sext i32 %66 to i64
  %68 = getelementptr inbounds ptr, ptr %65, i64 %67
  %69 = load ptr, ptr %68, align 8, !tbaa !7
  %70 = call ptr @strchr(ptr noundef %69, i32 noundef 58) #13
  store ptr %70, ptr %9, align 8, !tbaa !7
  %71 = icmp ne ptr null, %70
  br i1 %71, label %72, label %77

72:                                               ; preds = %64
  %73 = load ptr, ptr %9, align 8, !tbaa !7
  store i8 42, ptr %73, align 1, !tbaa !13
  %74 = load ptr, ptr %3, align 8, !tbaa !108
  %75 = load ptr, ptr %9, align 8, !tbaa !7
  %76 = call i32 @PMIx_Argv_append_nosize(ptr noundef %74, ptr noundef %75)
  br label %80

77:                                               ; preds = %64
  %78 = load ptr, ptr %3, align 8, !tbaa !108
  %79 = call i32 @PMIx_Argv_append_nosize(ptr noundef %78, ptr noundef @.str.18)
  br label %80

80:                                               ; preds = %77, %72
  br label %160

81:                                               ; preds = %54
  %82 = load ptr, ptr %8, align 8, !tbaa !11
  %83 = load i32, ptr %6, align 4, !tbaa !9
  %84 = sext i32 %83 to i64
  %85 = getelementptr inbounds ptr, ptr %82, i64 %84
  %86 = load ptr, ptr %85, align 8, !tbaa !7
  %87 = getelementptr inbounds i8, ptr %86, i64 1
  %88 = load i8, ptr %87, align 1, !tbaa !13
  %89 = sext i8 %88 to i32
  %90 = icmp eq i32 110, %89
  br i1 %90, label %101, label %91

91:                                               ; preds = %81
  %92 = load ptr, ptr %8, align 8, !tbaa !11
  %93 = load i32, ptr %6, align 4, !tbaa !9
  %94 = sext i32 %93 to i64
  %95 = getelementptr inbounds ptr, ptr %92, i64 %94
  %96 = load ptr, ptr %95, align 8, !tbaa !7
  %97 = getelementptr inbounds i8, ptr %96, i64 1
  %98 = load i8, ptr %97, align 1, !tbaa !13
  %99 = sext i8 %98 to i32
  %100 = icmp eq i32 78, %99
  br i1 %100, label %101, label %152

101:                                              ; preds = %91, %81
  %102 = load ptr, ptr %8, align 8, !tbaa !11
  %103 = load i32, ptr %6, align 4, !tbaa !9
  %104 = sext i32 %103 to i64
  %105 = getelementptr inbounds ptr, ptr %102, i64 %104
  %106 = load ptr, ptr %105, align 8, !tbaa !7
  %107 = getelementptr inbounds i8, ptr %106, i64 2
  %108 = call i64 @strtol(ptr noundef %107, ptr noundef null, i32 noundef 10) #12
  %109 = trunc i64 %108 to i32
  store i32 %109, ptr %10, align 4, !tbaa !9
  %110 = load i32, ptr %10, align 4, !tbaa !9
  %111 = icmp slt i32 %110, 0
  br i1 %111, label %118, label %112

112:                                              ; preds = %101
  %113 = load i32, ptr %10, align 4, !tbaa !9
  %114 = load ptr, ptr @prte_node_pool, align 8, !tbaa !53
  %115 = getelementptr inbounds nuw %struct.pmix_pointer_array_t, ptr %114, i32 0, i32 3
  %116 = load i32, ptr %115, align 8, !tbaa !54
  %117 = icmp sgt i32 %113, %116
  br i1 %117, label %118, label %126

118:                                              ; preds = %112, %101
  %119 = load i32, ptr %10, align 4, !tbaa !9
  %120 = load ptr, ptr %8, align 8, !tbaa !11
  %121 = load i32, ptr %6, align 4, !tbaa !9
  %122 = sext i32 %121 to i64
  %123 = getelementptr inbounds ptr, ptr %120, i64 %122
  %124 = load ptr, ptr %123, align 8, !tbaa !7
  %125 = call i32 (ptr, ptr, i32, ...) @pmix_show_help(ptr noundef @.str.2, ptr noundef @.str.4, i32 noundef 1, i32 noundef %119, ptr noundef %124)
  store i32 -43, ptr %7, align 4, !tbaa !9
  br label %201

126:                                              ; preds = %112
  %127 = load i8, ptr @prte_hnp_is_allocated, align 1, !tbaa !39, !range !51, !noundef !52
  %128 = trunc i8 %127 to i1
  br i1 %128, label %132, label %129

129:                                              ; preds = %126
  %130 = load i32, ptr %10, align 4, !tbaa !9
  %131 = add nsw i32 %130, 1
  store i32 %131, ptr %10, align 4, !tbaa !9
  br label %132

132:                                              ; preds = %129, %126
  %133 = load ptr, ptr @prte_node_pool, align 8, !tbaa !53
  %134 = load i32, ptr %10, align 4, !tbaa !9
  %135 = call ptr @pmix_pointer_array_get_item(ptr noundef %133, i32 noundef %134)
  store ptr %135, ptr %11, align 8, !tbaa !3
  %136 = load ptr, ptr %11, align 8, !tbaa !3
  %137 = icmp eq ptr null, %136
  br i1 %137, label %138, label %146

138:                                              ; preds = %132
  %139 = load i32, ptr %10, align 4, !tbaa !9
  %140 = load ptr, ptr %8, align 8, !tbaa !11
  %141 = load i32, ptr %6, align 4, !tbaa !9
  %142 = sext i32 %141 to i64
  %143 = getelementptr inbounds ptr, ptr %140, i64 %142
  %144 = load ptr, ptr %143, align 8, !tbaa !7
  %145 = call i32 (ptr, ptr, i32, ...) @pmix_show_help(ptr noundef @.str.2, ptr noundef @.str.5, i32 noundef 1, i32 noundef %139, ptr noundef %144)
  store i32 -43, ptr %7, align 4, !tbaa !9
  br label %201

146:                                              ; preds = %132
  %147 = load ptr, ptr %3, align 8, !tbaa !108
  %148 = load ptr, ptr %11, align 8, !tbaa !3
  %149 = getelementptr inbounds nuw %struct.prte_node_t, ptr %148, i32 0, i32 2
  %150 = load ptr, ptr %149, align 8, !tbaa !30
  %151 = call i32 @PMIx_Argv_append_nosize(ptr noundef %147, ptr noundef %150)
  br label %159

152:                                              ; preds = %91
  %153 = load ptr, ptr %8, align 8, !tbaa !11
  %154 = load i32, ptr %6, align 4, !tbaa !9
  %155 = sext i32 %154 to i64
  %156 = getelementptr inbounds ptr, ptr %153, i64 %155
  %157 = load ptr, ptr %156, align 8, !tbaa !7
  %158 = call i32 (ptr, ptr, i32, ...) @pmix_show_help(ptr noundef @.str.2, ptr noundef @.str.3, i32 noundef 1, ptr noundef %157)
  store i32 -43, ptr %7, align 4, !tbaa !9
  br label %201

159:                                              ; preds = %146
  br label %160

160:                                              ; preds = %159, %80
  br label %191

161:                                              ; preds = %34
  %162 = load ptr, ptr %8, align 8, !tbaa !11
  %163 = load i32, ptr %6, align 4, !tbaa !9
  %164 = sext i32 %163 to i64
  %165 = getelementptr inbounds ptr, ptr %162, i64 %164
  %166 = load ptr, ptr %165, align 8, !tbaa !7
  %167 = call ptr @strchr(ptr noundef %166, i32 noundef 58) #13
  store ptr %167, ptr %9, align 8, !tbaa !7
  %168 = icmp ne ptr null, %167
  br i1 %168, label %169, label %171

169:                                              ; preds = %161
  %170 = load ptr, ptr %9, align 8, !tbaa !7
  store i8 0, ptr %170, align 1, !tbaa !13
  br label %171

171:                                              ; preds = %169, %161
  %172 = load ptr, ptr %8, align 8, !tbaa !11
  %173 = load i32, ptr %6, align 4, !tbaa !9
  %174 = sext i32 %173 to i64
  %175 = getelementptr inbounds ptr, ptr %172, i64 %174
  %176 = load ptr, ptr %175, align 8, !tbaa !7
  %177 = call zeroext i1 @prte_check_host_is_local(ptr noundef %176)
  br i1 %177, label %178, label %182

178:                                              ; preds = %171
  %179 = load ptr, ptr %3, align 8, !tbaa !108
  %180 = load ptr, ptr getelementptr inbounds nuw (%struct.prte_process_info_t, ptr @prte_process_info, i32 0, i32 7), align 8, !tbaa !31
  %181 = call i32 @PMIx_Argv_append_nosize(ptr noundef %179, ptr noundef %180)
  br label %190

182:                                              ; preds = %171
  %183 = load ptr, ptr %3, align 8, !tbaa !108
  %184 = load ptr, ptr %8, align 8, !tbaa !11
  %185 = load i32, ptr %6, align 4, !tbaa !9
  %186 = sext i32 %185 to i64
  %187 = getelementptr inbounds ptr, ptr %184, i64 %186
  %188 = load ptr, ptr %187, align 8, !tbaa !7
  %189 = call i32 @PMIx_Argv_append_nosize(ptr noundef %183, ptr noundef %188)
  br label %190

190:                                              ; preds = %182, %178
  br label %191

191:                                              ; preds = %190, %160
  br label %192

192:                                              ; preds = %191
  %193 = load i32, ptr %6, align 4, !tbaa !9
  %194 = add nsw i32 %193, 1
  store i32 %194, ptr %6, align 4, !tbaa !9
  br label %27, !llvm.loop !110

195:                                              ; preds = %27
  %196 = load ptr, ptr %8, align 8, !tbaa !11
  call void @PMIx_Argv_free(ptr noundef %196)
  store ptr null, ptr %8, align 8, !tbaa !11
  br label %197

197:                                              ; preds = %195
  %198 = load i32, ptr %5, align 4, !tbaa !9
  %199 = add nsw i32 %198, 1
  store i32 %199, ptr %5, align 4, !tbaa !9
  br label %15, !llvm.loop !111

200:                                              ; preds = %15
  br label %201

201:                                              ; preds = %200, %152, %138, %118
  %202 = load ptr, ptr %12, align 8, !tbaa !11
  %203 = icmp ne ptr null, %202
  br i1 %203, label %204, label %206

204:                                              ; preds = %201
  %205 = load ptr, ptr %12, align 8, !tbaa !11
  call void @PMIx_Argv_free(ptr noundef %205)
  br label %206

206:                                              ; preds = %204, %201
  %207 = load ptr, ptr %8, align 8, !tbaa !11
  %208 = icmp ne ptr null, %207
  br i1 %208, label %209, label %211

209:                                              ; preds = %206
  %210 = load ptr, ptr %8, align 8, !tbaa !11
  call void @PMIx_Argv_free(ptr noundef %210)
  br label %211

211:                                              ; preds = %209, %206
  %212 = load i32, ptr %7, align 4, !tbaa !9
  call void @llvm.lifetime.end.p0(i64 8, ptr %12) #12
  call void @llvm.lifetime.end.p0(i64 8, ptr %11) #12
  call void @llvm.lifetime.end.p0(i64 4, ptr %10) #12
  call void @llvm.lifetime.end.p0(i64 8, ptr %9) #12
  call void @llvm.lifetime.end.p0(i64 8, ptr %8) #12
  call void @llvm.lifetime.end.p0(i64 4, ptr %7) #12
  call void @llvm.lifetime.end.p0(i64 4, ptr %6) #12
  call void @llvm.lifetime.end.p0(i64 4, ptr %5) #12
  ret i32 %212
}