; Function Attrs: nounwind uwtable
define internal fastcc range(i32 -43, 1) i32 @parse_dash_host(ptr noundef nonnull %0, ptr noundef %1) unnamed_addr #0 {
  %3 = tail call ptr @PMIx_Argv_split(ptr noundef %1, i32 noundef 44) #15
  %4 = tail call i32 @PMIx_Argv_count(ptr noundef %3) #15
  %5 = icmp sgt i32 %4, 0
  br i1 %5, label %.lr.ph87, label %.loopexit

.lr.ph87:                                         ; preds = %2, %._crit_edge
  %indvars.iv102 = phi i64 [ %indvars.iv.next103, %._crit_edge ], [ 0, %2 ]
  %6 = getelementptr inbounds nuw ptr, ptr %3, i64 %indvars.iv102
  %7 = load ptr, ptr %6, align 8, !tbaa !3
  %8 = tail call ptr @PMIx_Argv_split(ptr noundef %7, i32 noundef 44) #15
  %9 = load ptr, ptr %8, align 8, !tbaa !3
  %.not83 = icmp eq ptr %9, null
  br i1 %.not83, label %._crit_edge, label %.lr.ph

.lr.ph:                                           ; preds = %.lr.ph87, %59
  %indvars.iv = phi i64 [ %indvars.iv.next, %59 ], [ 0, %.lr.ph87 ]
  %10 = phi ptr [ %62, %59 ], [ %9, %.lr.ph87 ]
  %11 = getelementptr inbounds nuw ptr, ptr %8, i64 %indvars.iv
  %12 = load i8, ptr %10, align 1, !tbaa !8
  %13 = icmp eq i8 %12, 43
  br i1 %13, label %14, label %49

14:                                               ; preds = %.lr.ph
  %15 = getelementptr inbounds nuw i8, ptr %10, i64 1
  %16 = load i8, ptr %15, align 1, !tbaa !8
  switch i8 %16, label %47 [
    i8 101, label %17
    i8 69, label %17
    i8 110, label %20
    i8 78, label %20
  ]

17:                                               ; preds = %14, %14
  %18 = tail call ptr @strchr(ptr noundef nonnull dereferenceable(1) %10, i32 noundef 58) #16
  %.not70 = icmp eq ptr %18, null
  br i1 %.not70, label %59, label %19

19:                                               ; preds = %17
  store i8 42, ptr %18, align 1, !tbaa !8
  br label %59

20:                                               ; preds = %14, %14
  %21 = getelementptr inbounds nuw i8, ptr %10, i64 2
  %22 = tail call i64 @strtol(ptr noundef nonnull captures(none) %21, ptr noundef null, i32 noundef 10) #15
  %23 = trunc i64 %22 to i32
  %24 = icmp slt i32 %23, 0
  br i1 %24, label %30, label %25

25:                                               ; preds = %20
  %26 = load ptr, ptr @prte_node_pool, align 8, !tbaa !51
  %27 = getelementptr inbounds nuw i8, ptr %26, i64 128
  %28 = load i32, ptr %27, align 8, !tbaa !52
  %29 = icmp slt i32 %28, %23
  br i1 %29, label %30, label %33

30:                                               ; preds = %25, %20
  %31 = load ptr, ptr %11, align 8, !tbaa !3
  %32 = tail call i32 (ptr, ptr, i32, ...) @pmix_show_help(ptr noundef nonnull @.str.2, ptr noundef nonnull @.str.4, i32 noundef 1, i32 noundef %23, ptr noundef %31) #15
  br label %.loopexit

33:                                               ; preds = %25
  %34 = load i8, ptr @prte_hnp_is_allocated, align 1, !tbaa !58, !range !59, !noundef !60
  %35 = xor i8 %34, 1
  %not. = zext nneg i8 %35 to i32
  %spec.select = add nuw nsw i32 %not., %23
  %.not.i = icmp samesign ugt i32 %28, %spec.select
  br i1 %.not.i, label %pmix_pointer_array_get_item.exit, label %pmix_pointer_array_get_item.exit.thread, !prof !61

pmix_pointer_array_get_item.exit:                 ; preds = %33
  %36 = getelementptr inbounds nuw i8, ptr %26, i64 152
  %37 = load ptr, ptr %36, align 8, !tbaa !55
  %38 = zext nneg i32 %spec.select to i64
  %39 = getelementptr inbounds nuw ptr, ptr %37, i64 %38
  %40 = load ptr, ptr %39, align 8, !tbaa !46
  %41 = icmp eq ptr %40, null
  br i1 %41, label %pmix_pointer_array_get_item.exit.thread, label %44

pmix_pointer_array_get_item.exit.thread:          ; preds = %33, %pmix_pointer_array_get_item.exit
  %42 = load ptr, ptr %11, align 8, !tbaa !3
  %43 = tail call i32 (ptr, ptr, i32, ...) @pmix_show_help(ptr noundef nonnull @.str.2, ptr noundef nonnull @.str.5, i32 noundef 1, i32 noundef %spec.select, ptr noundef %42) #15
  br label %.loopexit

44:                                               ; preds = %pmix_pointer_array_get_item.exit
  %45 = getelementptr inbounds nuw i8, ptr %40, i64 152
  %46 = load ptr, ptr %45, align 8, !tbaa !27
  br label %59

47:                                               ; preds = %14
  %48 = tail call i32 (ptr, ptr, i32, ...) @pmix_show_help(ptr noundef nonnull @.str.2, ptr noundef nonnull @.str.3, i32 noundef 1, ptr noundef nonnull %10) #15
  br label %.loopexit

49:                                               ; preds = %.lr.ph
  %50 = tail call ptr @strchr(ptr noundef nonnull dereferenceable(1) %10, i32 noundef 58) #16
  %.not67 = icmp eq ptr %50, null
  br i1 %.not67, label %52, label %51

51:                                               ; preds = %49
  store i8 0, ptr %50, align 1, !tbaa !8
  %.pre = load ptr, ptr %11, align 8, !tbaa !3
  br label %52

52:                                               ; preds = %51, %49
  %53 = phi ptr [ %.pre, %51 ], [ %10, %49 ]
  %54 = tail call zeroext i1 @prte_check_host_is_local(ptr noundef %53) #15
  br i1 %54, label %55, label %57

55:                                               ; preds = %52
  %56 = load ptr, ptr getelementptr inbounds nuw (i8, ptr @prte_process_info, i64 800), align 8, !tbaa !28
  br label %59

57:                                               ; preds = %52
  %58 = load ptr, ptr %11, align 8, !tbaa !3
  br label %59

59:                                               ; preds = %17, %19, %44, %57, %55
  %.sink = phi ptr [ %18, %19 ], [ %46, %44 ], [ %58, %57 ], [ %56, %55 ], [ @.str.18, %17 ]
  %60 = tail call i32 @PMIx_Argv_append_nosize(ptr noundef nonnull %0, ptr noundef %.sink) #15
  %indvars.iv.next = add nuw nsw i64 %indvars.iv, 1
  %61 = getelementptr inbounds nuw ptr, ptr %8, i64 %indvars.iv.next
  %62 = load ptr, ptr %61, align 8, !tbaa !3
  %.not = icmp eq ptr %62, null
  br i1 %.not, label %._crit_edge, label %.lr.ph, !llvm.loop !91

._crit_edge:                                      ; preds = %59, %.lr.ph87
  tail call void @PMIx_Argv_free(ptr noundef nonnull %8) #15
  %indvars.iv.next103 = add nuw nsw i64 %indvars.iv102, 1
  %63 = tail call i32 @PMIx_Argv_count(ptr noundef %3) #15
  %64 = sext i32 %63 to i64
  %65 = icmp slt i64 %indvars.iv.next103, %64
  br i1 %65, label %.lr.ph87, label %.loopexit, !llvm.loop !92

.loopexit:                                        ; preds = %._crit_edge, %2, %47, %pmix_pointer_array_get_item.exit.thread, %30
  %.058 = phi i32 [ -43, %30 ], [ -43, %pmix_pointer_array_get_item.exit.thread ], [ -43, %47 ], [ 0, %2 ], [ 0, %._crit_edge ]
  %.1 = phi ptr [ %8, %30 ], [ %8, %pmix_pointer_array_get_item.exit.thread ], [ %8, %47 ], [ null, %2 ], [ null, %._crit_edge ]
  %.not68 = icmp eq ptr %3, null
  br i1 %.not68, label %67, label %66

66:                                               ; preds = %.loopexit
  tail call void @PMIx_Argv_free(ptr noundef nonnull %3) #15
  br label %67

67:                                               ; preds = %66, %.loopexit
  %.not69 = icmp eq ptr %.1, null
  br i1 %.not69, label %69, label %68

68:                                               ; preds = %67
  tail call void @PMIx_Argv_free(ptr noundef nonnull %.1) #15
  br label %69

69:                                               ; preds = %68, %67
  ret i32 %.058
}